; Function Attrs: nounwind uwtable
define dso_local noundef ptr @eio_obj_create(i32 noundef %0, ptr noundef readonly captures(none) %1, ptr noundef %2) #0 {
  %4 = tail call ptr @slurm_xcalloc(i64 noundef 1, i64 noundef 32, i1 noundef zeroext true, i1 noundef zeroext false, ptr noundef nonnull @.str, i32 noundef 513, ptr noundef nonnull @__func__.eio_obj_create) #10
  store i32 %0, ptr %4, align 8
  %5 = getelementptr inbounds nuw i8, ptr %4, i64 8
  store ptr %2, ptr %5, align 8
  %6 = tail call noundef ptr @slurm_xcalloc(i64 noundef 1, i64 noundef 64, i1 noundef zeroext true, i1 noundef zeroext false, ptr noundef nonnull @.str, i32 noundef 504, ptr noundef nonnull @__func__._ops_copy) #10
  tail call void @llvm.memcpy.p0.p0.i64(ptr noundef nonnull align 8 dereferenceable(64) %6, ptr noundef nonnull readonly align 8 dereferenceable(64) %1, i64 64, i1 false)
  %7 = getelementptr inbounds nuw i8, ptr %4, i64 16
  store ptr %6, ptr %7, align 8
  %8 = getelementptr inbounds nuw i8, ptr %4, i64 24
  store i8 0, ptr %8, align 8
  ret ptr %4
}